target datalayout = "e-m:e-p270:32:32-p271:32:32-p272:64:64-i64:64-i128:128-f80:128-n8:16:32:64-S128"
target triple = "x86_64-pc-linux-gnu"

%struct.vtx_data = type { i32, ptr }

@constructTetrix.last_used_node_name = internal global i32 4, align 4

; Function Attrs: nounwind uwtable
define internal void @constructTetrix(i32 noundef %0, i32 noundef %1, i32 noundef %2, i32 noundef %3, i32 noundef %4, ptr noundef %5) #0 {
  %7 = alloca i32, align 4
  %8 = alloca i32, align 4
  %9 = alloca i32, align 4
  %10 = alloca i32, align 4
  %11 = alloca i32, align 4
  %12 = alloca ptr, align 8
  %13 = alloca i32, align 4
  %14 = alloca i32, align 4
  %15 = alloca i32, align 4
  %16 = alloca i32, align 4
  %17 = alloca i32, align 4
  %18 = alloca i32, align 4
  %19 = alloca i32, align 4
  store i32 %0, ptr %7, align 4, !tbaa !4
  store i32 %1, ptr %8, align 4, !tbaa !4
  store i32 %2, ptr %9, align 4, !tbaa !4
  store i32 %3, ptr %10, align 4, !tbaa !4
  store i32 %4, ptr %11, align 4, !tbaa !4
  store ptr %5, ptr %12, align 8, !tbaa !8
  %20 = load i32, ptr %11, align 4, !tbaa !4
  %21 = icmp ugt i32 %20, 0
  br i1 %21, label %22, label %63

22:                                               ; preds = %6
  call void @llvm.lifetime.start.p0(i64 4, ptr %13) #11
  %23 = load i32, ptr @constructTetrix.last_used_node_name, align 4, !tbaa !4
  %24 = add i32 %23, 1
  store i32 %24, ptr @constructTetrix.last_used_node_name, align 4, !tbaa !4
  store i32 %24, ptr %13, align 4, !tbaa !4
  call void @llvm.lifetime.start.p0(i64 4, ptr %14) #11
  %25 = load i32, ptr @constructTetrix.last_used_node_name, align 4, !tbaa !4
  %26 = add i32 %25, 1
  store i32 %26, ptr @constructTetrix.last_used_node_name, align 4, !tbaa !4
  store i32 %26, ptr %14, align 4, !tbaa !4
  call void @llvm.lifetime.start.p0(i64 4, ptr %15) #11
  %27 = load i32, ptr @constructTetrix.last_used_node_name, align 4, !tbaa !4
  %28 = add i32 %27, 1
  store i32 %28, ptr @constructTetrix.last_used_node_name, align 4, !tbaa !4
  store i32 %28, ptr %15, align 4, !tbaa !4
  call void @llvm.lifetime.start.p0(i64 4, ptr %16) #11
  %29 = load i32, ptr @constructTetrix.last_used_node_name, align 4, !tbaa !4
  %30 = add i32 %29, 1
  store i32 %30, ptr @constructTetrix.last_used_node_name, align 4, !tbaa !4
  store i32 %30, ptr %16, align 4, !tbaa !4
  call void @llvm.lifetime.start.p0(i64 4, ptr %17) #11
  %31 = load i32, ptr @constructTetrix.last_used_node_name, align 4, !tbaa !4
  %32 = add i32 %31, 1
  store i32 %32, ptr @constructTetrix.last_used_node_name, align 4, !tbaa !4
  store i32 %32, ptr %17, align 4, !tbaa !4
  call void @llvm.lifetime.start.p0(i64 4, ptr %18) #11
  %33 = load i32, ptr @constructTetrix.last_used_node_name, align 4, !tbaa !4
  %34 = add i32 %33, 1
  store i32 %34, ptr @constructTetrix.last_used_node_name, align 4, !tbaa !4
  store i32 %34, ptr %18, align 4, !tbaa !4
  %35 = load i32, ptr %7, align 4, !tbaa !4
  %36 = load i32, ptr %13, align 4, !tbaa !4
  %37 = load i32, ptr %14, align 4, !tbaa !4
  %38 = load i32, ptr %16, align 4, !tbaa !4
  %39 = load i32, ptr %11, align 4, !tbaa !4
  %40 = sub i32 %39, 1
  %41 = load ptr, ptr %12, align 8, !tbaa !8
  call void @constructTetrix(i32 noundef %35, i32 noundef %36, i32 noundef %37, i32 noundef %38, i32 noundef %40, ptr noundef %41)
  %42 = load i32, ptr %8, align 4, !tbaa !4
  %43 = load i32, ptr %14, align 4, !tbaa !4
  %44 = load i32, ptr %15, align 4, !tbaa !4
  %45 = load i32, ptr %17, align 4, !tbaa !4
  %46 = load i32, ptr %11, align 4, !tbaa !4
  %47 = sub i32 %46, 1
  %48 = load ptr, ptr %12, align 8, !tbaa !8
  call void @constructTetrix(i32 noundef %42, i32 noundef %43, i32 noundef %44, i32 noundef %45, i32 noundef %47, ptr noundef %48)
  %49 = load i32, ptr %9, align 4, !tbaa !4
  %50 = load i32, ptr %13, align 4, !tbaa !4
  %51 = load i32, ptr %15, align 4, !tbaa !4
  %52 = load i32, ptr %18, align 4, !tbaa !4
  %53 = load i32, ptr %11, align 4, !tbaa !4
  %54 = sub i32 %53, 1
  %55 = load ptr, ptr %12, align 8, !tbaa !8
  call void @constructTetrix(i32 noundef %49, i32 noundef %50, i32 noundef %51, i32 noundef %52, i32 noundef %54, ptr noundef %55)
  %56 = load i32, ptr %10, align 4, !tbaa !4
  %57 = load i32, ptr %16, align 4, !tbaa !4
  %58 = load i32, ptr %17, align 4, !tbaa !4
  %59 = load i32, ptr %18, align 4, !tbaa !4
  %60 = load i32, ptr %11, align 4, !tbaa !4
  %61 = sub i32 %60, 1
  %62 = load ptr, ptr %12, align 8, !tbaa !8
  call void @constructTetrix(i32 noundef %56, i32 noundef %57, i32 noundef %58, i32 noundef %59, i32 noundef %61, ptr noundef %62)
  call void @llvm.lifetime.end.p0(i64 4, ptr %18) #11
  call void @llvm.lifetime.end.p0(i64 4, ptr %17) #11
  call void @llvm.lifetime.end.p0(i64 4, ptr %16) #11
  call void @llvm.lifetime.end.p0(i64 4, ptr %15) #11
  call void @llvm.lifetime.end.p0(i64 4, ptr %14) #11
  call void @llvm.lifetime.end.p0(i64 4, ptr %13) #11
  br label %244

63:                                               ; preds = %6
  call void @llvm.lifetime.start.p0(i64 4, ptr %19) #11
  %64 = load ptr, ptr %12, align 8, !tbaa !8
  %65 = load i32, ptr %7, align 4, !tbaa !4
  %66 = zext i32 %65 to i64
  %67 = getelementptr inbounds nuw %struct.vtx_data, ptr %64, i64 %66
  %68 = getelementptr inbounds nuw %struct.vtx_data, ptr %67, i32 0, i32 0
  %69 = load i32, ptr %68, align 8, !tbaa !42
  store i32 %69, ptr %19, align 4, !tbaa !4
  %70 = load i32, ptr %8, align 4, !tbaa !4
  %71 = load ptr, ptr %12, align 8, !tbaa !8
  %72 = load i32, ptr %7, align 4, !tbaa !4
  %73 = zext i32 %72 to i64
  %74 = getelementptr inbounds nuw %struct.vtx_data, ptr %71, i64 %73
  %75 = getelementptr inbounds nuw %struct.vtx_data, ptr %74, i32 0, i32 1
  %76 = load ptr, ptr %75, align 8, !tbaa !40
  %77 = load i32, ptr %19, align 4, !tbaa !4
  %78 = add i32 %77, 1
  store i32 %78, ptr %19, align 4, !tbaa !4
  %79 = zext i32 %77 to i64
  %80 = getelementptr inbounds nuw i32, ptr %76, i64 %79
  store i32 %70, ptr %80, align 4, !tbaa !4
  %81 = load i32, ptr %9, align 4, !tbaa !4
  %82 = load ptr, ptr %12, align 8, !tbaa !8
  %83 = load i32, ptr %7, align 4, !tbaa !4
  %84 = zext i32 %83 to i64
  %85 = getelementptr inbounds nuw %struct.vtx_data, ptr %82, i64 %84
  %86 = getelementptr inbounds nuw %struct.vtx_data, ptr %85, i32 0, i32 1
  %87 = load ptr, ptr %86, align 8, !tbaa !40
  %88 = load i32, ptr %19, align 4, !tbaa !4
  %89 = add i32 %88, 1
  store i32 %89, ptr %19, align 4, !tbaa !4
  %90 = zext i32 %88 to i64
  %91 = getelementptr inbounds nuw i32, ptr %87, i64 %90
  store i32 %81, ptr %91, align 4, !tbaa !4
  %92 = load i32, ptr %10, align 4, !tbaa !4
  %93 = load ptr, ptr %12, align 8, !tbaa !8
  %94 = load i32, ptr %7, align 4, !tbaa !4
  %95 = zext i32 %94 to i64
  %96 = getelementptr inbounds nuw %struct.vtx_data, ptr %93, i64 %95
  %97 = getelementptr inbounds nuw %struct.vtx_data, ptr %96, i32 0, i32 1
  %98 = load ptr, ptr %97, align 8, !tbaa !40
  %99 = load i32, ptr %19, align 4, !tbaa !4
  %100 = add i32 %99, 1
  store i32 %100, ptr %19, align 4, !tbaa !4
  %101 = zext i32 %99 to i64
  %102 = getelementptr inbounds nuw i32, ptr %98, i64 %101
  store i32 %92, ptr %102, align 4, !tbaa !4
  %103 = load i32, ptr %19, align 4, !tbaa !4
  %104 = load ptr, ptr %12, align 8, !tbaa !8
  %105 = load i32, ptr %7, align 4, !tbaa !4
  %106 = zext i32 %105 to i64
  %107 = getelementptr inbounds nuw %struct.vtx_data, ptr %104, i64 %106
  %108 = getelementptr inbounds nuw %struct.vtx_data, ptr %107, i32 0, i32 0
  store i32 %103, ptr %108, align 8, !tbaa !42
  %109 = load ptr, ptr %12, align 8, !tbaa !8
  %110 = load i32, ptr %8, align 4, !tbaa !4
  %111 = zext i32 %110 to i64
  %112 = getelementptr inbounds nuw %struct.vtx_data, ptr %109, i64 %111
  %113 = getelementptr inbounds nuw %struct.vtx_data, ptr %112, i32 0, i32 0
  %114 = load i32, ptr %113, align 8, !tbaa !42
  store i32 %114, ptr %19, align 4, !tbaa !4
  %115 = load i32, ptr %7, align 4, !tbaa !4
  %116 = load ptr, ptr %12, align 8, !tbaa !8
  %117 = load i32, ptr %8, align 4, !tbaa !4
  %118 = zext i32 %117 to i64
  %119 = getelementptr inbounds nuw %struct.vtx_data, ptr %116, i64 %118
  %120 = getelementptr inbounds nuw %struct.vtx_data, ptr %119, i32 0, i32 1
  %121 = load ptr, ptr %120, align 8, !tbaa !40
  %122 = load i32, ptr %19, align 4, !tbaa !4
  %123 = add i32 %122, 1
  store i32 %123, ptr %19, align 4, !tbaa !4
  %124 = zext i32 %122 to i64
  %125 = getelementptr inbounds nuw i32, ptr %121, i64 %124
  store i32 %115, ptr %125, align 4, !tbaa !4
  %126 = load i32, ptr %9, align 4, !tbaa !4
  %127 = load ptr, ptr %12, align 8, !tbaa !8
  %128 = load i32, ptr %8, align 4, !tbaa !4
  %129 = zext i32 %128 to i64
  %130 = getelementptr inbounds nuw %struct.vtx_data, ptr %127, i64 %129
  %131 = getelementptr inbounds nuw %struct.vtx_data, ptr %130, i32 0, i32 1
  %132 = load ptr, ptr %131, align 8, !tbaa !40
  %133 = load i32, ptr %19, align 4, !tbaa !4
  %134 = add i32 %133, 1
  store i32 %134, ptr %19, align 4, !tbaa !4
  %135 = zext i32 %133 to i64
  %136 = getelementptr inbounds nuw i32, ptr %132, i64 %135
  store i32 %126, ptr %136, align 4, !tbaa !4
  %137 = load i32, ptr %10, align 4, !tbaa !4
  %138 = load ptr, ptr %12, align 8, !tbaa !8
  %139 = load i32, ptr %8, align 4, !tbaa !4
  %140 = zext i32 %139 to i64
  %141 = getelementptr inbounds nuw %struct.vtx_data, ptr %138, i64 %140
  %142 = getelementptr inbounds nuw %struct.vtx_data, ptr %141, i32 0, i32 1
  %143 = load ptr, ptr %142, align 8, !tbaa !40
  %144 = load i32, ptr %19, align 4, !tbaa !4
  %145 = add i32 %144, 1
  store i32 %145, ptr %19, align 4, !tbaa !4
  %146 = zext i32 %144 to i64
  %147 = getelementptr inbounds nuw i32, ptr %143, i64 %146
  store i32 %137, ptr %147, align 4, !tbaa !4
  %148 = load i32, ptr %19, align 4, !tbaa !4
  %149 = load ptr, ptr %12, align 8, !tbaa !8
  %150 = load i32, ptr %8, align 4, !tbaa !4
  %151 = zext i32 %150 to i64
  %152 = getelementptr inbounds nuw %struct.vtx_data, ptr %149, i64 %151
  %153 = getelementptr inbounds nuw %struct.vtx_data, ptr %152, i32 0, i32 0
  store i32 %148, ptr %153, align 8, !tbaa !42
  %154 = load ptr, ptr %12, align 8, !tbaa !8
  %155 = load i32, ptr %9, align 4, !tbaa !4
  %156 = zext i32 %155 to i64
  %157 = getelementptr inbounds nuw %struct.vtx_data, ptr %154, i64 %156
  %158 = getelementptr inbounds nuw %struct.vtx_data, ptr %157, i32 0, i32 0
  %159 = load i32, ptr %158, align 8, !tbaa !42
  store i32 %159, ptr %19, align 4, !tbaa !4
  %160 = load i32, ptr %7, align 4, !tbaa !4
  %161 = load ptr, ptr %12, align 8, !tbaa !8
  %162 = load i32, ptr %9, align 4, !tbaa !4
  %163 = zext i32 %162 to i64
  %164 = getelementptr inbounds nuw %struct.vtx_data, ptr %161, i64 %163
  %165 = getelementptr inbounds nuw %struct.vtx_data, ptr %164, i32 0, i32 1
  %166 = load ptr, ptr %165, align 8, !tbaa !40
  %167 = load i32, ptr %19, align 4, !tbaa !4
  %168 = add i32 %167, 1
  store i32 %168, ptr %19, align 4, !tbaa !4
  %169 = zext i32 %167 to i64
  %170 = getelementptr inbounds nuw i32, ptr %166, i64 %169
  store i32 %160, ptr %170, align 4, !tbaa !4
  %171 = load i32, ptr %8, align 4, !tbaa !4
  %172 = load ptr, ptr %12, align 8, !tbaa !8
  %173 = load i32, ptr %9, align 4, !tbaa !4
  %174 = zext i32 %173 to i64
  %175 = getelementptr inbounds nuw %struct.vtx_data, ptr %172, i64 %174
  %176 = getelementptr inbounds nuw %struct.vtx_data, ptr %175, i32 0, i32 1
  %177 = load ptr, ptr %176, align 8, !tbaa !40
  %178 = load i32, ptr %19, align 4, !tbaa !4
  %179 = add i32 %178, 1
  store i32 %179, ptr %19, align 4, !tbaa !4
  %180 = zext i32 %178 to i64
  %181 = getelementptr inbounds nuw i32, ptr %177, i64 %180
  store i32 %171, ptr %181, align 4, !tbaa !4
  %182 = load i32, ptr %10, align 4, !tbaa !4
  %183 = load ptr, ptr %12, align 8, !tbaa !8
  %184 = load i32, ptr %9, align 4, !tbaa !4
  %185 = zext i32 %184 to i64
  %186 = getelementptr inbounds nuw %struct.vtx_data, ptr %183, i64 %185
  %187 = getelementptr inbounds nuw %struct.vtx_data, ptr %186, i32 0, i32 1
  %188 = load ptr, ptr %187, align 8, !tbaa !40
  %189 = load i32, ptr %19, align 4, !tbaa !4
  %190 = add i32 %189, 1
  store i32 %190, ptr %19, align 4, !tbaa !4
  %191 = zext i32 %189 to i64
  %192 = getelementptr inbounds nuw i32, ptr %188, i64 %191
  store i32 %182, ptr %192, align 4, !tbaa !4
  %193 = load i32, ptr %19, align 4, !tbaa !4
  %194 = load ptr, ptr %12, align 8, !tbaa !8
  %195 = load i32, ptr %9, align 4, !tbaa !4
  %196 = zext i32 %195 to i64
  %197 = getelementptr inbounds nuw %struct.vtx_data, ptr %194, i64 %196
  %198 = getelementptr inbounds nuw %struct.vtx_data, ptr %197, i32 0, i32 0
  store i32 %193, ptr %198, align 8, !tbaa !42
  %199 = load ptr, ptr %12, align 8, !tbaa !8
  %200 = load i32, ptr %10, align 4, !tbaa !4
  %201 = zext i32 %200 to i64
  %202 = getelementptr inbounds nuw %struct.vtx_data, ptr %199, i64 %201
  %203 = getelementptr inbounds nuw %struct.vtx_data, ptr %202, i32 0, i32 0
  %204 = load i32, ptr %203, align 8, !tbaa !42
  store i32 %204, ptr %19, align 4, !tbaa !4
  %205 = load i32, ptr %7, align 4, !tbaa !4
  %206 = load ptr, ptr %12, align 8, !tbaa !8
  %207 = load i32, ptr %10, align 4, !tbaa !4
  %208 = zext i32 %207 to i64
  %209 = getelementptr inbounds nuw %struct.vtx_data, ptr %206, i64 %208
  %210 = getelementptr inbounds nuw %struct.vtx_data, ptr %209, i32 0, i32 1
  %211 = load ptr, ptr %210, align 8, !tbaa !40
  %212 = load i32, ptr %19, align 4, !tbaa !4
  %213 = add i32 %212, 1
  store i32 %213, ptr %19, align 4, !tbaa !4
  %214 = zext i32 %212 to i64
  %215 = getelementptr inbounds nuw i32, ptr %211, i64 %214
  store i32 %205, ptr %215, align 4, !tbaa !4
  %216 = load i32, ptr %8, align 4, !tbaa !4
  %217 = load ptr, ptr %12, align 8, !tbaa !8
  %218 = load i32, ptr %10, align 4, !tbaa !4
  %219 = zext i32 %218 to i64
  %220 = getelementptr inbounds nuw %struct.vtx_data, ptr %217, i64 %219
  %221 = getelementptr inbounds nuw %struct.vtx_data, ptr %220, i32 0, i32 1
  %222 = load ptr, ptr %221, align 8, !tbaa !40
  %223 = load i32, ptr %19, align 4, !tbaa !4
  %224 = add i32 %223, 1
  store i32 %224, ptr %19, align 4, !tbaa !4
  %225 = zext i32 %223 to i64
  %226 = getelementptr inbounds nuw i32, ptr %222, i64 %225
  store i32 %216, ptr %226, align 4, !tbaa !4
  %227 = load i32, ptr %9, align 4, !tbaa !4
  %228 = load ptr, ptr %12, align 8, !tbaa !8
  %229 = load i32, ptr %10, align 4, !tbaa !4
  %230 = zext i32 %229 to i64
  %231 = getelementptr inbounds nuw %struct.vtx_data, ptr %228, i64 %230
  %232 = getelementptr inbounds nuw %struct.vtx_data, ptr %231, i32 0, i32 1
  %233 = load ptr, ptr %232, align 8, !tbaa !40
  %234 = load i32, ptr %19, align 4, !tbaa !4
  %235 = add i32 %234, 1
  store i32 %235, ptr %19, align 4, !tbaa !4
  %236 = zext i32 %234 to i64
  %237 = getelementptr inbounds nuw i32, ptr %233, i64 %236
  store i32 %227, ptr %237, align 4, !tbaa !4
  %238 = load i32, ptr %19, align 4, !tbaa !4
  %239 = load ptr, ptr %12, align 8, !tbaa !8
  %240 = load i32, ptr %10, align 4, !tbaa !4
  %241 = zext i32 %240 to i64
  %242 = getelementptr inbounds nuw %struct.vtx_data, ptr %239, i64 %241
  %243 = getelementptr inbounds nuw %struct.vtx_data, ptr %242, i32 0, i32 0
  store i32 %238, ptr %243, align 8, !tbaa !42
  call void @llvm.lifetime.end.p0(i64 4, ptr %19) #11
  br label %244

244:                                              ; preds = %63, %22
  ret void
}