; Function Attrs: nofree nosync nounwind memory(readwrite, inaccessiblemem: none) uwtable
define internal fastcc void @constructTetrix(i32 noundef %0, i32 noundef %1, i32 noundef %2, i32 noundef %3, i32 noundef %4, ptr noundef %5) unnamed_addr #3 {
  %.not97 = icmp eq i32 %4, 0
  br i1 %.not97, label %tailrecurse._crit_edge, label %tailrecurse

tailrecurse:                                      ; preds = %6, %tailrecurse
  %.tr95102 = phi i32 [ %14, %tailrecurse ], [ %4, %6 ]
  %.tr94101 = phi i32 [ %13, %tailrecurse ], [ %3, %6 ]
  %.tr93100 = phi i32 [ %12, %tailrecurse ], [ %2, %6 ]
  %.tr9299 = phi i32 [ %11, %tailrecurse ], [ %1, %6 ]
  %.tr98 = phi i32 [ %.tr94101, %tailrecurse ], [ %0, %6 ]
  %7 = load i32, ptr @constructTetrix.last_used_node_name, align 4, !tbaa !30
  %8 = add i32 %7, 1
  %9 = add i32 %7, 2
  %10 = add i32 %7, 3
  %11 = add i32 %7, 4
  %12 = add i32 %7, 5
  %13 = add i32 %7, 6
  store i32 %13, ptr @constructTetrix.last_used_node_name, align 4, !tbaa !30
  %14 = add i32 %.tr95102, -1
  tail call fastcc void @constructTetrix(i32 noundef %.tr98, i32 noundef %8, i32 noundef %9, i32 noundef %11, i32 noundef %14, ptr noundef %5)
  tail call fastcc void @constructTetrix(i32 noundef %.tr9299, i32 noundef %9, i32 noundef %10, i32 noundef %12, i32 noundef %14, ptr noundef %5)
  tail call fastcc void @constructTetrix(i32 noundef %.tr93100, i32 noundef %8, i32 noundef %10, i32 noundef %13, i32 noundef %14, ptr noundef %5)
  %.not = icmp eq i32 %14, 0
  br i1 %.not, label %tailrecurse._crit_edge, label %tailrecurse

tailrecurse._crit_edge:                           ; preds = %tailrecurse, %6
  %.tr.lcssa = phi i32 [ %0, %6 ], [ %.tr94101, %tailrecurse ]
  %.tr92.lcssa = phi i32 [ %1, %6 ], [ %11, %tailrecurse ]
  %.tr93.lcssa = phi i32 [ %2, %6 ], [ %12, %tailrecurse ]
  %.tr94.lcssa = phi i32 [ %3, %6 ], [ %13, %tailrecurse ]
  %15 = zext i32 %.tr.lcssa to i64
  %16 = getelementptr inbounds nuw %struct.vtx_data, ptr %5, i64 %15
  %17 = load i32, ptr %16, align 8, !tbaa !38
  %18 = getelementptr inbounds nuw i8, ptr %16, i64 8
  %19 = load ptr, ptr %18, align 8, !tbaa !35
  %20 = add i32 %17, 1
  %21 = zext i32 %17 to i64
  %22 = getelementptr inbounds nuw i32, ptr %19, i64 %21
  store i32 %.tr92.lcssa, ptr %22, align 4, !tbaa !30
  %23 = add i32 %17, 2
  %24 = zext i32 %20 to i64
  %25 = getelementptr inbounds nuw i32, ptr %19, i64 %24
  store i32 %.tr93.lcssa, ptr %25, align 4, !tbaa !30
  %26 = add i32 %17, 3
  %27 = zext i32 %23 to i64
  %28 = getelementptr inbounds nuw i32, ptr %19, i64 %27
  store i32 %.tr94.lcssa, ptr %28, align 4, !tbaa !30
  store i32 %26, ptr %16, align 8, !tbaa !38
  %29 = zext i32 %.tr92.lcssa to i64
  %30 = getelementptr inbounds nuw %struct.vtx_data, ptr %5, i64 %29
  %31 = load i32, ptr %30, align 8, !tbaa !38
  %32 = getelementptr inbounds nuw i8, ptr %30, i64 8
  %33 = load ptr, ptr %32, align 8, !tbaa !35
  %34 = add i32 %31, 1
  %35 = zext i32 %31 to i64
  %36 = getelementptr inbounds nuw i32, ptr %33, i64 %35
  store i32 %.tr.lcssa, ptr %36, align 4, !tbaa !30
  %37 = add i32 %31, 2
  %38 = zext i32 %34 to i64
  %39 = getelementptr inbounds nuw i32, ptr %33, i64 %38
  store i32 %.tr93.lcssa, ptr %39, align 4, !tbaa !30
  %40 = add i32 %31, 3
  %41 = zext i32 %37 to i64
  %42 = getelementptr inbounds nuw i32, ptr %33, i64 %41
  store i32 %.tr94.lcssa, ptr %42, align 4, !tbaa !30
  store i32 %40, ptr %30, align 8, !tbaa !38
  %43 = zext i32 %.tr93.lcssa to i64
  %44 = getelementptr inbounds nuw %struct.vtx_data, ptr %5, i64 %43
  %45 = load i32, ptr %44, align 8, !tbaa !38
  %46 = getelementptr inbounds nuw i8, ptr %44, i64 8
  %47 = load ptr, ptr %46, align 8, !tbaa !35
  %48 = add i32 %45, 1
  %49 = zext i32 %45 to i64
  %50 = getelementptr inbounds nuw i32, ptr %47, i64 %49
  store i32 %.tr.lcssa, ptr %50, align 4, !tbaa !30
  %51 = add i32 %45, 2
  %52 = zext i32 %48 to i64
  %53 = getelementptr inbounds nuw i32, ptr %47, i64 %52
  store i32 %.tr92.lcssa, ptr %53, align 4, !tbaa !30
  %54 = add i32 %45, 3
  %55 = zext i32 %51 to i64
  %56 = getelementptr inbounds nuw i32, ptr %47, i64 %55
  store i32 %.tr94.lcssa, ptr %56, align 4, !tbaa !30
  store i32 %54, ptr %44, align 8, !tbaa !38
  %57 = zext i32 %.tr94.lcssa to i64
  %58 = getelementptr inbounds nuw %struct.vtx_data, ptr %5, i64 %57
  %59 = load i32, ptr %58, align 8, !tbaa !38
  %60 = getelementptr inbounds nuw i8, ptr %58, i64 8
  %61 = load ptr, ptr %60, align 8, !tbaa !35
  %62 = add i32 %59, 1
  %63 = zext i32 %59 to i64
  %64 = getelementptr inbounds nuw i32, ptr %61, i64 %63
  store i32 %.tr.lcssa, ptr %64, align 4, !tbaa !30
  %65 = add i32 %59, 2
  %66 = zext i32 %62 to i64
  %67 = getelementptr inbounds nuw i32, ptr %61, i64 %66
  store i32 %.tr92.lcssa, ptr %67, align 4, !tbaa !30
  %68 = add i32 %59, 3
  %69 = zext i32 %65 to i64
  %70 = getelementptr inbounds nuw i32, ptr %61, i64 %69
  store i32 %.tr93.lcssa, ptr %70, align 4, !tbaa !30
  store i32 %68, ptr %58, align 8, !tbaa !38
  ret void
}